target datalayout = "e-m:e-p270:32:32-p271:32:32-p272:64:64-i64:64-i128:128-f80:128-n8:16:32:64-S128"
target triple = "x86_64-pc-linux-gnu"

%struct._spdu_someip_mapping = type { i32, i32, i32, i32, i32 }

@.str.288 = private unnamed_addr constant [111 x i8] c"We currently only support 16 bit SOME/IP Service IDs (Service-ID: %x  Method-ID: %x  MsgType: %x  Version: %i)\00", align 1
@.str.289 = private unnamed_addr constant [110 x i8] c"We currently only support 16 bit SOME/IP Method IDs (Service-ID: %x  Method-ID: %x  MsgType: %x  Version: %i)\00", align 1
@.str.290 = private unnamed_addr constant [113 x i8] c"We currently only support 8 bit SOME/IP major versions (Service-ID: %x  Method-ID: %x  MsgType: %x  Version: %i)\00", align 1
@.str.291 = private unnamed_addr constant [112 x i8] c"We currently only support 8 bit SOME/IP message types (Service-ID: %x  Method-ID: %x  MsgType: %x  Version: %i)\00", align 1

; Function Attrs: null_pointer_is_valid sspstrong uwtable
define internal zeroext i1 @update_spdu_someip_mapping(ptr noundef %0, ptr noundef %1) #0 {
  %3 = alloca i1, align 1
  %4 = alloca ptr, align 8
  %5 = alloca ptr, align 8
  %6 = alloca ptr, align 8
  %7 = alloca i32, align 4
  store ptr %0, ptr %4, align 8
  store ptr %1, ptr %5, align 8
  call void @llvm.lifetime.start.p0(i64 8, ptr %6) #14
  %8 = load ptr, ptr %4, align 8
  store ptr %8, ptr %6, align 8
  %9 = load ptr, ptr %6, align 8
  %10 = getelementptr inbounds nuw %struct._spdu_someip_mapping, ptr %9, i32 0, i32 0
  %11 = load i32, ptr %10, align 4
  %12 = icmp ugt i32 %11, 65535
  br i1 %12, label %13, label %28

13:                                               ; preds = %2
  %14 = load ptr, ptr %6, align 8
  %15 = getelementptr inbounds nuw %struct._spdu_someip_mapping, ptr %14, i32 0, i32 0
  %16 = load i32, ptr %15, align 4
  %17 = load ptr, ptr %6, align 8
  %18 = getelementptr inbounds nuw %struct._spdu_someip_mapping, ptr %17, i32 0, i32 1
  %19 = load i32, ptr %18, align 4
  %20 = load ptr, ptr %6, align 8
  %21 = getelementptr inbounds nuw %struct._spdu_someip_mapping, ptr %20, i32 0, i32 3
  %22 = load i32, ptr %21, align 4
  %23 = load ptr, ptr %6, align 8
  %24 = getelementptr inbounds nuw %struct._spdu_someip_mapping, ptr %23, i32 0, i32 2
  %25 = load i32, ptr %24, align 4
  %26 = call noalias ptr (ptr, ptr, ...) @wmem_strdup_printf(ptr noundef null, ptr noundef @.str.288, i32 noundef %16, i32 noundef %19, i32 noundef %22, i32 noundef %25)
  %27 = load ptr, ptr %5, align 8
  store ptr %26, ptr %27, align 8
  store i1 false, ptr %3, align 1
  store i32 1, ptr %7, align 4
  br label %89

28:                                               ; preds = %2
  %29 = load ptr, ptr %6, align 8
  %30 = getelementptr inbounds nuw %struct._spdu_someip_mapping, ptr %29, i32 0, i32 1
  %31 = load i32, ptr %30, align 4
  %32 = icmp ugt i32 %31, 65535
  br i1 %32, label %33, label %48

33:                                               ; preds = %28
  %34 = load ptr, ptr %6, align 8
  %35 = getelementptr inbounds nuw %struct._spdu_someip_mapping, ptr %34, i32 0, i32 0
  %36 = load i32, ptr %35, align 4
  %37 = load ptr, ptr %6, align 8
  %38 = getelementptr inbounds nuw %struct._spdu_someip_mapping, ptr %37, i32 0, i32 1
  %39 = load i32, ptr %38, align 4
  %40 = load ptr, ptr %6, align 8
  %41 = getelementptr inbounds nuw %struct._spdu_someip_mapping, ptr %40, i32 0, i32 3
  %42 = load i32, ptr %41, align 4
  %43 = load ptr, ptr %6, align 8
  %44 = getelementptr inbounds nuw %struct._spdu_someip_mapping, ptr %43, i32 0, i32 2
  %45 = load i32, ptr %44, align 4
  %46 = call noalias ptr (ptr, ptr, ...) @wmem_strdup_printf(ptr noundef null, ptr noundef @.str.289, i32 noundef %36, i32 noundef %39, i32 noundef %42, i32 noundef %45)
  %47 = load ptr, ptr %5, align 8
  store ptr %46, ptr %47, align 8
  store i1 false, ptr %3, align 1
  store i32 1, ptr %7, align 4
  br label %89

48:                                               ; preds = %28
  %49 = load ptr, ptr %6, align 8
  %50 = getelementptr inbounds nuw %struct._spdu_someip_mapping, ptr %49, i32 0, i32 2
  %51 = load i32, ptr %50, align 4
  %52 = icmp ugt i32 %51, 255
  br i1 %52, label %53, label %68

53:                                               ; preds = %48
  %54 = load ptr, ptr %6, align 8
  %55 = getelementptr inbounds nuw %struct._spdu_someip_mapping, ptr %54, i32 0, i32 0
  %56 = load i32, ptr %55, align 4
  %57 = load ptr, ptr %6, align 8
  %58 = getelementptr inbounds nuw %struct._spdu_someip_mapping, ptr %57, i32 0, i32 1
  %59 = load i32, ptr %58, align 4
  %60 = load ptr, ptr %6, align 8
  %61 = getelementptr inbounds nuw %struct._spdu_someip_mapping, ptr %60, i32 0, i32 3
  %62 = load i32, ptr %61, align 4
  %63 = load ptr, ptr %6, align 8
  %64 = getelementptr inbounds nuw %struct._spdu_someip_mapping, ptr %63, i32 0, i32 2
  %65 = load i32, ptr %64, align 4
  %66 = call noalias ptr (ptr, ptr, ...) @wmem_strdup_printf(ptr noundef null, ptr noundef @.str.290, i32 noundef %56, i32 noundef %59, i32 noundef %62, i32 noundef %65)
  %67 = load ptr, ptr %5, align 8
  store ptr %66, ptr %67, align 8
  br label %68

68:                                               ; preds = %53, %48
  %69 = load ptr, ptr %6, align 8
  %70 = getelementptr inbounds nuw %struct._spdu_someip_mapping, ptr %69, i32 0, i32 3
  %71 = load i32, ptr %70, align 4
  %72 = icmp ugt i32 %71, 255
  br i1 %72, label %73, label %88

73:                                               ; preds = %68
  %74 = load ptr, ptr %6, align 8
  %75 = getelementptr inbounds nuw %struct._spdu_someip_mapping, ptr %74, i32 0, i32 0
  %76 = load i32, ptr %75, align 4
  %77 = load ptr, ptr %6, align 8
  %78 = getelementptr inbounds nuw %struct._spdu_someip_mapping, ptr %77, i32 0, i32 1
  %79 = load i32, ptr %78, align 4
  %80 = load ptr, ptr %6, align 8
  %81 = getelementptr inbounds nuw %struct._spdu_someip_mapping, ptr %80, i32 0, i32 3
  %82 = load i32, ptr %81, align 4
  %83 = load ptr, ptr %6, align 8
  %84 = getelementptr inbounds nuw %struct._spdu_someip_mapping, ptr %83, i32 0, i32 2
  %85 = load i32, ptr %84, align 4
  %86 = call noalias ptr (ptr, ptr, ...) @wmem_strdup_printf(ptr noundef null, ptr noundef @.str.291, i32 noundef %76, i32 noundef %79, i32 noundef %82, i32 noundef %85)
  %87 = load ptr, ptr %5, align 8
  store ptr %86, ptr %87, align 8
  br label %88

88:                                               ; preds = %73, %68
  store i1 true, ptr %3, align 1
  store i32 1, ptr %7, align 4
  br label %89

89:                                               ; preds = %88, %33, %13
  call void @llvm.lifetime.end.p0(i64 8, ptr %6) #14
  %90 = load i1, ptr %3, align 1
  ret i1 %90
}