; Function Attrs: null_pointer_is_valid sspstrong uwtable
define internal noundef zeroext i1 @update_spdu_someip_mapping(ptr noundef readonly captures(none) %0, ptr noundef writeonly captures(none) %1) #0 {
  %3 = load i32, ptr %0, align 4
  %4 = icmp ugt i32 %3, 65535
  %5 = getelementptr inbounds nuw i8, ptr %0, i64 4
  %6 = load i32, ptr %5, align 4
  br i1 %4, label %7, label %13

7:                                                ; preds = %2
  %8 = getelementptr inbounds nuw i8, ptr %0, i64 12
  %9 = load i32, ptr %8, align 4
  %10 = getelementptr inbounds nuw i8, ptr %0, i64 8
  %11 = load i32, ptr %10, align 4
  %12 = tail call noalias ptr (ptr, ptr, ...) @wmem_strdup_printf(ptr noundef null, ptr noundef nonnull @.str.288, i32 noundef %3, i32 noundef %6, i32 noundef %9, i32 noundef %11)
  br label %.sink.split

13:                                               ; preds = %2
  %14 = icmp ugt i32 %6, 65535
  br i1 %14, label %15, label %21

15:                                               ; preds = %13
  %16 = getelementptr inbounds nuw i8, ptr %0, i64 12
  %17 = load i32, ptr %16, align 4
  %18 = getelementptr inbounds nuw i8, ptr %0, i64 8
  %19 = load i32, ptr %18, align 4
  %20 = tail call noalias ptr (ptr, ptr, ...) @wmem_strdup_printf(ptr noundef null, ptr noundef nonnull @.str.289, i32 noundef %3, i32 noundef %6, i32 noundef %17, i32 noundef %19)
  br label %.sink.split

21:                                               ; preds = %13
  %22 = getelementptr inbounds nuw i8, ptr %0, i64 8
  %23 = load i32, ptr %22, align 4
  %24 = icmp ugt i32 %23, 255
  br i1 %24, label %25, label %29

25:                                               ; preds = %21
  %26 = getelementptr inbounds nuw i8, ptr %0, i64 12
  %27 = load i32, ptr %26, align 4
  %28 = tail call noalias ptr (ptr, ptr, ...) @wmem_strdup_printf(ptr noundef null, ptr noundef nonnull @.str.290, i32 noundef %3, i32 noundef %6, i32 noundef %27, i32 noundef %23)
  store ptr %28, ptr %1, align 8
  br label %29

29:                                               ; preds = %25, %21
  %30 = getelementptr inbounds nuw i8, ptr %0, i64 12
  %31 = load i32, ptr %30, align 4
  %32 = icmp ugt i32 %31, 255
  br i1 %32, label %33, label %38

33:                                               ; preds = %29
  %34 = load i32, ptr %0, align 4
  %35 = load i32, ptr %5, align 4
  %36 = load i32, ptr %22, align 4
  %37 = tail call noalias ptr (ptr, ptr, ...) @wmem_strdup_printf(ptr noundef null, ptr noundef nonnull @.str.291, i32 noundef %34, i32 noundef %35, i32 noundef %31, i32 noundef %36)
  br label %.sink.split

.sink.split:                                      ; preds = %7, %15, %33
  %.sink = phi ptr [ %37, %33 ], [ %20, %15 ], [ %12, %7 ]
  %.0.ph = phi i1 [ true, %33 ], [ false, %15 ], [ false, %7 ]
  store ptr %.sink, ptr %1, align 8
  br label %38

38:                                               ; preds = %.sink.split, %29
  %.0 = phi i1 [ true, %29 ], [ %.0.ph, %.sink.split ]
  ret i1 %.0
}